target datalayout = "e-m:e-p270:32:32-p271:32:32-p272:64:64-i64:64-i128:128-f80:128-n8:16:32:64-S128"
target triple = "x86_64-pc-linux-gnu"

%"class.cv::bioinspired::BasicRetinaFilter" = type { %"class.cv::bioinspired::TemplateBuffer", %"class.std::valarray", i32, i32, %"class.std::valarray", %"class.std::valarray", %"class.std::valarray", float, float, float, float, float, float, float, float }
%"class.cv::bioinspired::TemplateBuffer" = type { ptr, %"class.std::valarray", i64, i64, i64, i64, i64 }
%"class.std::valarray" = type { i64, ptr }

; Function Attrs: inlinehint mustprogress nounwind uwtable
define linkonce_odr hidden noundef i32 @_ZN2cv11bioinspired14TemplateBufferIfE9getNBrowsEv(ptr noundef nonnull align 8 dereferenceable(64) %0) #6 comdat align 2 {
  %2 = alloca ptr, align 8
  store ptr %0, ptr %2, align 8, !tbaa !23
  %3 = load ptr, ptr %2, align 8
  %4 = getelementptr inbounds nuw %"class.cv::bioinspired::TemplateBuffer", ptr %3, i32 0, i32 2
  %5 = load i64, ptr %4, align 8, !tbaa !29
  %6 = trunc i64 %5 to i32
  ret i32 %6
}

; Function Attrs: inlinehint mustprogress nounwind uwtable
define linkonce_odr hidden noundef nonnull align 4 dereferenceable(4) ptr @_ZNSt8valarrayIfEixEm(ptr noundef nonnull align 8 dereferenceable(16) %0, i64 noundef %1) #6 comdat align 2 {
  %3 = alloca ptr, align 8
  %4 = alloca i64, align 8
  store ptr %0, ptr %3, align 8, !tbaa !34
  store i64 %1, ptr %4, align 8, !tbaa !25
  %5 = load ptr, ptr %3, align 8
  %6 = getelementptr inbounds nuw %"class.std::valarray", ptr %5, i32 0, i32 1
  %7 = load ptr, ptr %6, align 8, !tbaa !37
  %8 = load i64, ptr %4, align 8, !tbaa !25
  %9 = getelementptr inbounds nuw float, ptr %7, i64 %8
  ret ptr %9
}

; Function Attrs: inlinehint mustprogress nounwind uwtable
define linkonce_odr hidden noundef i32 @_ZN2cv11bioinspired14TemplateBufferIfE12getNBcolumnsEv(ptr noundef nonnull align 8 dereferenceable(64) %0) #6 comdat align 2 {
  %2 = alloca ptr, align 8
  store ptr %0, ptr %2, align 8, !tbaa !23
  %3 = load ptr, ptr %2, align 8
  %4 = getelementptr inbounds nuw %"class.cv::bioinspired::TemplateBuffer", ptr %3, i32 0, i32 3
  %5 = load i64, ptr %4, align 8, !tbaa !30
  %6 = trunc i64 %5 to i32
  ret i32 %6
}

; Function Attrs: inlinehint mustprogress nounwind uwtable
define linkonce_odr hidden noundef i32 @_ZN2cv11bioinspired14TemplateBufferIfE11getNBpixelsEv(ptr noundef nonnull align 8 dereferenceable(64) %0) #6 comdat align 2 {
  %2 = alloca ptr, align 8
  store ptr %0, ptr %2, align 8, !tbaa !23
  %3 = load ptr, ptr %2, align 8
  %4 = getelementptr inbounds nuw %"class.cv::bioinspired::TemplateBuffer", ptr %3, i32 0, i32 5
  %5 = load i64, ptr %4, align 8, !tbaa !32
  %6 = trunc i64 %5 to i32
  ret i32 %6
}

; Function Attrs: mustprogress uwtable
define hidden void @_ZN2cv11bioinspired17BasicRetinaFilter44_verticalAnticausalFilter_Irregular_multGainEPfjj(ptr noundef nonnull align 8 dereferenceable(168) %0, ptr noundef %1, i32 noundef %2, i32 noundef %3) #4 align 2 {
  %5 = alloca ptr, align 8
  %6 = alloca ptr, align 8
  %7 = alloca i32, align 4
  %8 = alloca i32, align 4
  %9 = alloca ptr, align 8
  %10 = alloca ptr, align 8
  %11 = alloca ptr, align 8
  %12 = alloca i32, align 4
  %13 = alloca i32, align 4
  %14 = alloca float, align 4
  %15 = alloca ptr, align 8
  %16 = alloca ptr, align 8
  %17 = alloca ptr, align 8
  %18 = alloca i32, align 4
  store ptr %0, ptr %5, align 8, !tbaa !3
  store ptr %1, ptr %6, align 8, !tbaa !49
  store i32 %2, ptr %7, align 4, !tbaa !8
  store i32 %3, ptr %8, align 4, !tbaa !8
  %19 = load ptr, ptr %5, align 8
  call void @llvm.lifetime.start.p0(i64 8, ptr %9) #3
  %20 = load ptr, ptr %6, align 8, !tbaa !49
  %21 = getelementptr inbounds nuw %"class.cv::bioinspired::BasicRetinaFilter", ptr %19, i32 0, i32 0
  %22 = call noundef i32 @_ZN2cv11bioinspired14TemplateBufferIfE11getNBpixelsEv(ptr noundef nonnull align 8 dereferenceable(64) %21)
  %23 = zext i32 %22 to i64
  %24 = getelementptr inbounds nuw float, ptr %20, i64 %23
  %25 = getelementptr inbounds nuw %"class.cv::bioinspired::BasicRetinaFilter", ptr %19, i32 0, i32 0
  %26 = call noundef i32 @_ZN2cv11bioinspired14TemplateBufferIfE12getNBcolumnsEv(ptr noundef nonnull align 8 dereferenceable(64) %25)
  %27 = zext i32 %26 to i64
  %28 = sub i64 0, %27
  %29 = getelementptr inbounds float, ptr %24, i64 %28
  store ptr %29, ptr %9, align 8, !tbaa !49
  call void @llvm.lifetime.start.p0(i64 8, ptr %10) #3
  %30 = getelementptr inbounds nuw %"class.cv::bioinspired::BasicRetinaFilter", ptr %19, i32 0, i32 5
  %31 = call noundef nonnull align 4 dereferenceable(4) ptr @_ZNSt8valarrayIfEixEm(ptr noundef nonnull align 8 dereferenceable(16) %30, i64 noundef 0) #3
  %32 = getelementptr inbounds nuw %"class.cv::bioinspired::BasicRetinaFilter", ptr %19, i32 0, i32 0
  %33 = call noundef i32 @_ZN2cv11bioinspired14TemplateBufferIfE11getNBpixelsEv(ptr noundef nonnull align 8 dereferenceable(64) %32)
  %34 = zext i32 %33 to i64
  %35 = getelementptr inbounds nuw float, ptr %31, i64 %34
  %36 = getelementptr inbounds nuw %"class.cv::bioinspired::BasicRetinaFilter", ptr %19, i32 0, i32 0
  %37 = call noundef i32 @_ZN2cv11bioinspired14TemplateBufferIfE12getNBcolumnsEv(ptr noundef nonnull align 8 dereferenceable(64) %36)
  %38 = zext i32 %37 to i64
  %39 = sub i64 0, %38
  %40 = getelementptr inbounds float, ptr %35, i64 %39
  store ptr %40, ptr %10, align 8, !tbaa !49
  call void @llvm.lifetime.start.p0(i64 8, ptr %11) #3
  %41 = getelementptr inbounds nuw %"class.cv::bioinspired::BasicRetinaFilter", ptr %19, i32 0, i32 6
  %42 = call noundef nonnull align 4 dereferenceable(4) ptr @_ZNSt8valarrayIfEixEm(ptr noundef nonnull align 8 dereferenceable(16) %41, i64 noundef 0) #3
  %43 = getelementptr inbounds nuw %"class.cv::bioinspired::BasicRetinaFilter", ptr %19, i32 0, i32 0
  %44 = call noundef i32 @_ZN2cv11bioinspired14TemplateBufferIfE11getNBpixelsEv(ptr noundef nonnull align 8 dereferenceable(64) %43)
  %45 = zext i32 %44 to i64
  %46 = getelementptr inbounds nuw float, ptr %42, i64 %45
  %47 = getelementptr inbounds nuw %"class.cv::bioinspired::BasicRetinaFilter", ptr %19, i32 0, i32 0
  %48 = call noundef i32 @_ZN2cv11bioinspired14TemplateBufferIfE12getNBcolumnsEv(ptr noundef nonnull align 8 dereferenceable(64) %47)
  %49 = zext i32 %48 to i64
  %50 = sub i64 0, %49
  %51 = getelementptr inbounds float, ptr %46, i64 %50
  store ptr %51, ptr %11, align 8, !tbaa !49
  call void @llvm.lifetime.start.p0(i64 4, ptr %12) #3
  %52 = load i32, ptr %7, align 4, !tbaa !8
  store i32 %52, ptr %12, align 4, !tbaa !8
  br label %53

53:                                               ; preds = %111, %4
  %54 = load i32, ptr %12, align 4, !tbaa !8
  %55 = load i32, ptr %8, align 4, !tbaa !8
  %56 = icmp ult i32 %54, %55
  br i1 %56, label %58, label %57

57:                                               ; preds = %53
  store i32 2, ptr %13, align 4
  call void @llvm.lifetime.end.p0(i64 4, ptr %12) #3
  br label %114

58:                                               ; preds = %53
  call void @llvm.lifetime.start.p0(i64 4, ptr %14) #3
  store float 0.000000e+00, ptr %14, align 4, !tbaa !26
  call void @llvm.lifetime.start.p0(i64 8, ptr %15) #3
  %59 = load ptr, ptr %9, align 8, !tbaa !49
  %60 = load i32, ptr %12, align 4, !tbaa !8
  %61 = zext i32 %60 to i64
  %62 = getelementptr inbounds nuw float, ptr %59, i64 %61
  store ptr %62, ptr %15, align 8, !tbaa !49
  call void @llvm.lifetime.start.p0(i64 8, ptr %16) #3
  %63 = load ptr, ptr %10, align 8, !tbaa !49
  %64 = load i32, ptr %12, align 4, !tbaa !8
  %65 = zext i32 %64 to i64
  %66 = getelementptr inbounds nuw float, ptr %63, i64 %65
  store ptr %66, ptr %16, align 8, !tbaa !49
  call void @llvm.lifetime.start.p0(i64 8, ptr %17) #3
  %67 = load ptr, ptr %11, align 8, !tbaa !49
  %68 = load i32, ptr %12, align 4, !tbaa !8
  %69 = zext i32 %68 to i64
  %70 = getelementptr inbounds nuw float, ptr %67, i64 %69
  store ptr %70, ptr %17, align 8, !tbaa !49
  call void @llvm.lifetime.start.p0(i64 4, ptr %18) #3
  store i32 0, ptr %18, align 4, !tbaa !8
  br label %71

71:                                               ; preds = %107, %58
  %72 = load i32, ptr %18, align 4, !tbaa !8
  %73 = getelementptr inbounds nuw %"class.cv::bioinspired::BasicRetinaFilter", ptr %19, i32 0, i32 0
  %74 = call noundef i32 @_ZN2cv11bioinspired14TemplateBufferIfE9getNBrowsEv(ptr noundef nonnull align 8 dereferenceable(64) %73)
  %75 = icmp ult i32 %72, %74
  br i1 %75, label %77, label %76

76:                                               ; preds = %71
  store i32 5, ptr %13, align 4
  call void @llvm.lifetime.end.p0(i64 4, ptr %18) #3
  br label %110

77:                                               ; preds = %71
  %78 = load ptr, ptr %15, align 8, !tbaa !49
  %79 = load float, ptr %78, align 4, !tbaa !26
  %80 = load ptr, ptr %16, align 8, !tbaa !49
  %81 = load float, ptr %80, align 4, !tbaa !26
  %82 = load float, ptr %14, align 4, !tbaa !26
  %83 = call float @llvm.fmuladd.f32(float %81, float %82, float %79)
  store float %83, ptr %14, align 4, !tbaa !26
  %84 = load ptr, ptr %17, align 8, !tbaa !49
  %85 = load float, ptr %84, align 4, !tbaa !26
  %86 = load float, ptr %14, align 4, !tbaa !26
  %87 = fmul float %85, %86
  %88 = load ptr, ptr %15, align 8, !tbaa !49
  store float %87, ptr %88, align 4, !tbaa !26
  %89 = getelementptr inbounds nuw %"class.cv::bioinspired::BasicRetinaFilter", ptr %19, i32 0, i32 0
  %90 = call noundef i32 @_ZN2cv11bioinspired14TemplateBufferIfE12getNBcolumnsEv(ptr noundef nonnull align 8 dereferenceable(64) %89)
  %91 = load ptr, ptr %15, align 8, !tbaa !49
  %92 = zext i32 %90 to i64
  %93 = sub i64 0, %92
  %94 = getelementptr inbounds float, ptr %91, i64 %93
  store ptr %94, ptr %15, align 8, !tbaa !49
  %95 = getelementptr inbounds nuw %"class.cv::bioinspired::BasicRetinaFilter", ptr %19, i32 0, i32 0
  %96 = call noundef i32 @_ZN2cv11bioinspired14TemplateBufferIfE12getNBcolumnsEv(ptr noundef nonnull align 8 dereferenceable(64) %95)
  %97 = load ptr, ptr %16, align 8, !tbaa !49
  %98 = zext i32 %96 to i64
  %99 = sub i64 0, %98
  %100 = getelementptr inbounds float, ptr %97, i64 %99
  store ptr %100, ptr %16, align 8, !tbaa !49
  %101 = getelementptr inbounds nuw %"class.cv::bioinspired::BasicRetinaFilter", ptr %19, i32 0, i32 0
  %102 = call noundef i32 @_ZN2cv11bioinspired14TemplateBufferIfE12getNBcolumnsEv(ptr noundef nonnull align 8 dereferenceable(64) %101)
  %103 = load ptr, ptr %17, align 8, !tbaa !49
  %104 = zext i32 %102 to i64
  %105 = sub i64 0, %104
  %106 = getelementptr inbounds float, ptr %103, i64 %105
  store ptr %106, ptr %17, align 8, !tbaa !49
  br label %107

107:                                              ; preds = %77
  %108 = load i32, ptr %18, align 4, !tbaa !8
  %109 = add i32 %108, 1
  store i32 %109, ptr %18, align 4, !tbaa !8
  br label %71, !llvm.loop !125

110:                                              ; preds = %76
  call void @llvm.lifetime.end.p0(i64 8, ptr %17) #3
  call void @llvm.lifetime.end.p0(i64 8, ptr %16) #3
  call void @llvm.lifetime.end.p0(i64 8, ptr %15) #3
  call void @llvm.lifetime.end.p0(i64 4, ptr %14) #3
  br label %111

111:                                              ; preds = %110
  %112 = load i32, ptr %12, align 4, !tbaa !8
  %113 = add i32 %112, 1
  store i32 %113, ptr %12, align 4, !tbaa !8
  br label %53, !llvm.loop !126

114:                                              ; preds = %57
  call void @llvm.lifetime.end.p0(i64 8, ptr %11) #3
  call void @llvm.lifetime.end.p0(i64 8, ptr %10) #3
  call void @llvm.lifetime.end.p0(i64 8, ptr %9) #3
  ret void
}