; Function Attrs: mustprogress nofree norecurse nosync nounwind memory(read, argmem: readwrite, inaccessiblemem: none) uwtable
define hidden void @_ZN2cv11bioinspired17BasicRetinaFilter44_verticalAnticausalFilter_Irregular_multGainEPfjj(ptr noundef nonnull readonly align 8 captures(none) dereferenceable(168) %0, ptr noundef captures(none) %1, i32 noundef %2, i32 noundef %3) local_unnamed_addr #10 align 2 {
  %5 = getelementptr inbounds nuw i8, ptr %0, i64 48
  %6 = load i64, ptr %5, align 8, !tbaa !19
  %7 = and i64 %6, 4294967295
  %8 = getelementptr inbounds nuw float, ptr %1, i64 %7
  %9 = getelementptr inbounds nuw i8, ptr %0, i64 32
  %10 = load i64, ptr %9, align 8, !tbaa !17
  %11 = and i64 %10, 4294967295
  %12 = sub nsw i64 0, %11
  %13 = getelementptr inbounds float, ptr %8, i64 %12
  %14 = getelementptr inbounds nuw i8, ptr %0, i64 112
  %15 = load ptr, ptr %14, align 8, !tbaa !10
  %16 = getelementptr inbounds nuw float, ptr %15, i64 %7
  %17 = getelementptr inbounds float, ptr %16, i64 %12
  %18 = getelementptr inbounds nuw i8, ptr %0, i64 128
  %19 = load ptr, ptr %18, align 8, !tbaa !10
  %20 = getelementptr inbounds nuw float, ptr %19, i64 %7
  %21 = getelementptr inbounds float, ptr %20, i64 %12
  %22 = icmp ult i32 %2, %3
  br i1 %22, label %.lr.ph34, label %._crit_edge35

.lr.ph34:                                         ; preds = %4
  %23 = getelementptr inbounds nuw i8, ptr %0, i64 24
  %24 = load i64, ptr %23, align 8, !tbaa !15
  %25 = trunc i64 %24 to i32
  %.not = icmp eq i32 %25, 0
  br i1 %.not, label %._crit_edge35, label %.lr.ph.us.preheader

.lr.ph.us.preheader:                              ; preds = %.lr.ph34
  %26 = zext i32 %2 to i64
  %wide.trip.count = zext i32 %3 to i64
  br label %.lr.ph.us

.lr.ph.us:                                        ; preds = %.lr.ph.us.preheader, %._crit_edge.us
  %indvars.iv = phi i64 [ %26, %.lr.ph.us.preheader ], [ %indvars.iv.next, %._crit_edge.us ]
  %27 = getelementptr inbounds nuw float, ptr %13, i64 %indvars.iv
  %28 = getelementptr inbounds nuw float, ptr %17, i64 %indvars.iv
  %29 = getelementptr inbounds nuw float, ptr %21, i64 %indvars.iv
  br label %30

30:                                               ; preds = %.lr.ph.us, %30
  %.031.us = phi i32 [ 0, %.lr.ph.us ], [ %39, %30 ]
  %.02230.us = phi ptr [ %29, %.lr.ph.us ], [ %38, %30 ]
  %.02329.us = phi ptr [ %28, %.lr.ph.us ], [ %37, %30 ]
  %.02428.us = phi ptr [ %27, %.lr.ph.us ], [ %36, %30 ]
  %.02527.us = phi float [ 0.000000e+00, %.lr.ph.us ], [ %33, %30 ]
  %31 = load float, ptr %.02428.us, align 4, !tbaa !11
  %32 = load float, ptr %.02329.us, align 4, !tbaa !11
  %33 = tail call float @llvm.fmuladd.f32(float %32, float %.02527.us, float %31)
  %34 = load float, ptr %.02230.us, align 4, !tbaa !11
  %35 = fmul float %34, %33
  store float %35, ptr %.02428.us, align 4, !tbaa !11
  %36 = getelementptr inbounds float, ptr %.02428.us, i64 %12
  %37 = getelementptr inbounds float, ptr %.02329.us, i64 %12
  %38 = getelementptr inbounds float, ptr %.02230.us, i64 %12
  %39 = add nuw i32 %.031.us, 1
  %exitcond.not = icmp eq i32 %39, %25
  br i1 %exitcond.not, label %._crit_edge.us, label %30, !llvm.loop !139

._crit_edge.us:                                   ; preds = %30
  %indvars.iv.next = add nuw nsw i64 %indvars.iv, 1
  %exitcond38.not = icmp eq i64 %indvars.iv.next, %wide.trip.count
  br i1 %exitcond38.not, label %._crit_edge35, label %.lr.ph.us, !llvm.loop !140

._crit_edge35:                                    ; preds = %._crit_edge.us, %.lr.ph34, %4
  ret void
}